target datalayout = "e-m:e-p270:32:32-p271:32:32-p272:64:64-i64:64-i128:128-f80:128-n8:16:32:64-S128"
target triple = "x86_64-pc-linux-gnu"

%struct.RelFileLocator = type { i32, i32, i32 }
%struct.PendingRelDelete = type { %struct.RelFileLocator, i32, i8, i32, ptr }
%struct.HASHCTL = type { i64, i64, i64, i64, i64, i64, ptr, ptr, ptr, ptr, ptr, ptr }
%struct.PendingRelSync = type { %struct.RelFileLocator, i8 }
%struct.HASH_SEQ_STATUS = type { ptr, i32, ptr, i8, i32 }

@pendingDeletes = internal global ptr null, align 8
@pendingSyncHash = internal global ptr null, align 8
@CurrentMemoryContext = external global ptr, align 8
@.str.3 = private unnamed_addr constant [20 x i8] c"tmp relfilelocators\00", align 1

; Function Attrs: nounwind uwtable
define dso_local void @SerializePendingSyncs(i64 noundef %0, ptr noundef %1) #0 {
  %3 = alloca i64, align 8
  %4 = alloca ptr, align 8
  %5 = alloca ptr, align 8
  %6 = alloca %struct.HASHCTL, align 8
  %7 = alloca %struct.HASH_SEQ_STATUS, align 8
  %8 = alloca ptr, align 8
  %9 = alloca ptr, align 8
  %10 = alloca ptr, align 8
  %11 = alloca ptr, align 8
  %12 = alloca ptr, align 8
  %13 = alloca i32, align 4
  %14 = alloca i64, align 8
  %15 = alloca ptr, align 8
  %16 = alloca ptr, align 8
  store i64 %0, ptr %3, align 8
  store ptr %1, ptr %4, align 8
  call void @llvm.lifetime.start.p0(i64 8, ptr %5) #8
  call void @llvm.lifetime.start.p0(i64 96, ptr %6) #8
  call void @llvm.lifetime.start.p0(i64 32, ptr %7) #8
  call void @llvm.lifetime.start.p0(i64 8, ptr %8) #8
  call void @llvm.lifetime.start.p0(i64 8, ptr %9) #8
  call void @llvm.lifetime.start.p0(i64 8, ptr %10) #8
  call void @llvm.lifetime.start.p0(i64 8, ptr %11) #8
  %17 = load ptr, ptr %4, align 8
  store ptr %17, ptr %11, align 8
  %18 = load ptr, ptr @pendingSyncHash, align 8
  %19 = icmp ne ptr %18, null
  br i1 %19, label %21, label %20

20:                                               ; preds = %2
  br label %69

21:                                               ; preds = %2
  %22 = getelementptr inbounds nuw %struct.HASHCTL, ptr %6, i32 0, i32 4
  store i64 12, ptr %22, align 8
  %23 = getelementptr inbounds nuw %struct.HASHCTL, ptr %6, i32 0, i32 5
  store i64 12, ptr %23, align 8
  %24 = load ptr, ptr @CurrentMemoryContext, align 8
  %25 = getelementptr inbounds nuw %struct.HASHCTL, ptr %6, i32 0, i32 10
  store ptr %24, ptr %25, align 8
  %26 = load ptr, ptr @pendingSyncHash, align 8
  %27 = call i64 @hash_get_num_entries(ptr noundef %26)
  %28 = call ptr @hash_create(ptr noundef @.str.3, i64 noundef %27, ptr noundef %6, i32 noundef 1064)
  store ptr %28, ptr %5, align 8
  %29 = load ptr, ptr @pendingSyncHash, align 8
  call void @hash_seq_init(ptr noundef %7, ptr noundef %29)
  br label %30

30:                                               ; preds = %33, %21
  %31 = call ptr @hash_seq_search(ptr noundef %7)
  store ptr %31, ptr %8, align 8
  %32 = icmp ne ptr %31, null
  br i1 %32, label %33, label %38

33:                                               ; preds = %30
  %34 = load ptr, ptr %5, align 8
  %35 = load ptr, ptr %8, align 8
  %36 = getelementptr inbounds nuw %struct.PendingRelSync, ptr %35, i32 0, i32 0
  %37 = call ptr @hash_search(ptr noundef %34, ptr noundef %36, i32 noundef 1, ptr noundef null)
  br label %30, !llvm.loop !10

38:                                               ; preds = %30
  %39 = load ptr, ptr @pendingDeletes, align 8
  store ptr %39, ptr %9, align 8
  br label %40

40:                                               ; preds = %54, %38
  %41 = load ptr, ptr %9, align 8
  %42 = icmp ne ptr %41, null
  br i1 %42, label %43, label %58

43:                                               ; preds = %40
  %44 = load ptr, ptr %9, align 8
  %45 = getelementptr inbounds nuw %struct.PendingRelDelete, ptr %44, i32 0, i32 2
  %46 = load i8, ptr %45, align 8, !range !4, !noundef !5
  %47 = trunc i8 %46 to i1
  br i1 %47, label %48, label %53

48:                                               ; preds = %43
  %49 = load ptr, ptr %5, align 8
  %50 = load ptr, ptr %9, align 8
  %51 = getelementptr inbounds nuw %struct.PendingRelDelete, ptr %50, i32 0, i32 0
  %52 = call ptr @hash_search(ptr noundef %49, ptr noundef %51, i32 noundef 2, ptr noundef null)
  br label %53

53:                                               ; preds = %48, %43
  br label %54

54:                                               ; preds = %53
  %55 = load ptr, ptr %9, align 8
  %56 = getelementptr inbounds nuw %struct.PendingRelDelete, ptr %55, i32 0, i32 4
  %57 = load ptr, ptr %56, align 8
  store ptr %57, ptr %9, align 8
  br label %40, !llvm.loop !11

58:                                               ; preds = %40
  %59 = load ptr, ptr %5, align 8
  call void @hash_seq_init(ptr noundef %7, ptr noundef %59)
  br label %60

60:                                               ; preds = %63, %58
  %61 = call ptr @hash_seq_search(ptr noundef %7)
  store ptr %61, ptr %10, align 8
  %62 = icmp ne ptr %61, null
  br i1 %62, label %63, label %67

63:                                               ; preds = %60
  %64 = load ptr, ptr %11, align 8
  %65 = getelementptr inbounds nuw %struct.RelFileLocator, ptr %64, i32 1
  store ptr %65, ptr %11, align 8
  %66 = load ptr, ptr %10, align 8
  call void @llvm.memcpy.p0.p0.i64(ptr align 4 %64, ptr align 4 %66, i64 12, i1 false)
  br label %60, !llvm.loop !12

67:                                               ; preds = %60
  %68 = load ptr, ptr %5, align 8
  call void @hash_destroy(ptr noundef %68)
  br label %69

69:                                               ; preds = %67, %20
  br label %70

70:                                               ; preds = %69
  call void @llvm.lifetime.start.p0(i64 8, ptr %12) #8
  %71 = load ptr, ptr %11, align 8
  store ptr %71, ptr %12, align 8
  call void @llvm.lifetime.start.p0(i64 4, ptr %13) #8
  store i32 0, ptr %13, align 4
  call void @llvm.lifetime.start.p0(i64 8, ptr %14) #8
  store i64 12, ptr %14, align 8
  %72 = load ptr, ptr %12, align 8
  %73 = ptrtoint ptr %72 to i64
  %74 = and i64 %73, 7
  %75 = icmp eq i64 %74, 0
  br i1 %75, label %76, label %99

76:                                               ; preds = %70
  %77 = load i64, ptr %14, align 8
  %78 = and i64 %77, 7
  %79 = icmp eq i64 %78, 0
  br i1 %79, label %80, label %99

80:                                               ; preds = %76
  %81 = load i32, ptr %13, align 4
  %82 = icmp eq i32 %81, 0
  br i1 %82, label %83, label %99

83:                                               ; preds = %80
  %84 = load i64, ptr %14, align 8
  %85 = icmp ule i64 %84, 1024
  br i1 %85, label %86, label %99

86:                                               ; preds = %83
  call void @llvm.lifetime.start.p0(i64 8, ptr %15) #8
  %87 = load ptr, ptr %12, align 8
  store ptr %87, ptr %15, align 8
  call void @llvm.lifetime.start.p0(i64 8, ptr %16) #8
  %88 = load ptr, ptr %15, align 8
  %89 = load i64, ptr %14, align 8
  %90 = getelementptr inbounds nuw i8, ptr %88, i64 %89
  store ptr %90, ptr %16, align 8
  br label %91

91:                                               ; preds = %95, %86
  %92 = load ptr, ptr %15, align 8
  %93 = load ptr, ptr %16, align 8
  %94 = icmp ult ptr %92, %93
  br i1 %94, label %95, label %98

95:                                               ; preds = %91
  %96 = load ptr, ptr %15, align 8
  %97 = getelementptr inbounds nuw i64, ptr %96, i32 1
  store ptr %97, ptr %15, align 8
  store i64 0, ptr %96, align 8
  br label %91, !llvm.loop !13

98:                                               ; preds = %91
  call void @llvm.lifetime.end.p0(i64 8, ptr %16) #8
  call void @llvm.lifetime.end.p0(i64 8, ptr %15) #8
  br label %104

99:                                               ; preds = %83, %80, %76, %70
  %100 = load ptr, ptr %12, align 8
  %101 = load i32, ptr %13, align 4
  %102 = trunc i32 %101 to i8
  %103 = load i64, ptr %14, align 8
  call void @llvm.memset.p0.i64(ptr align 1 %100, i8 %102, i64 %103, i1 false)
  br label %104

104:                                              ; preds = %99, %98
  call void @llvm.lifetime.end.p0(i64 8, ptr %14) #8
  call void @llvm.lifetime.end.p0(i64 4, ptr %13) #8
  call void @llvm.lifetime.end.p0(i64 8, ptr %12) #8
  br label %105

105:                                              ; preds = %104
  br label %106

106:                                              ; preds = %105
  call void @llvm.lifetime.end.p0(i64 8, ptr %11) #8
  call void @llvm.lifetime.end.p0(i64 8, ptr %10) #8
  call void @llvm.lifetime.end.p0(i64 8, ptr %9) #8
  call void @llvm.lifetime.end.p0(i64 8, ptr %8) #8
  call void @llvm.lifetime.end.p0(i64 32, ptr %7) #8
  call void @llvm.lifetime.end.p0(i64 96, ptr %6) #8
  call void @llvm.lifetime.end.p0(i64 8, ptr %5) #8
  ret void
}