; Function Attrs: nounwind uwtable
define dso_local void @SerializePendingSyncs(i64 noundef %0, ptr noundef writeonly captures(none) %1) local_unnamed_addr #0 {
  %3 = alloca %struct.HASHCTL, align 8
  %4 = alloca %struct.HASH_SEQ_STATUS, align 8
  call void @llvm.lifetime.start.p0(i64 96, ptr nonnull %3) #8
  call void @llvm.lifetime.start.p0(i64 32, ptr nonnull %4) #8
  %5 = load ptr, ptr @pendingSyncHash, align 8
  %.not = icmp eq ptr %5, null
  br i1 %.not, label %29, label %6

6:                                                ; preds = %2
  %7 = getelementptr inbounds nuw i8, ptr %3, i64 32
  store i64 12, ptr %7, align 8
  %8 = getelementptr inbounds nuw i8, ptr %3, i64 40
  store i64 12, ptr %8, align 8
  %9 = load ptr, ptr @CurrentMemoryContext, align 8
  %10 = getelementptr inbounds nuw i8, ptr %3, i64 80
  store ptr %9, ptr %10, align 8
  %11 = tail call i64 @hash_get_num_entries(ptr noundef nonnull %5) #8
  %12 = call ptr @hash_create(ptr noundef nonnull @.str.3, i64 noundef %11, ptr noundef nonnull %3, i32 noundef 1064) #8
  %13 = load ptr, ptr @pendingSyncHash, align 8
  call void @hash_seq_init(ptr noundef nonnull %4, ptr noundef %13) #8
  %14 = call ptr @hash_seq_search(ptr noundef nonnull %4) #8
  %.not3235 = icmp eq ptr %14, null
  br i1 %.not3235, label %.preheader, label %.lr.ph

.preheader:                                       ; preds = %.lr.ph, %6
  %.036 = load ptr, ptr @pendingDeletes, align 8
  %.not3337 = icmp eq ptr %.036, null
  br i1 %.not3337, label %._crit_edge, label %.lr.ph39

.lr.ph:                                           ; preds = %6, %.lr.ph
  %15 = phi ptr [ %17, %.lr.ph ], [ %14, %6 ]
  %16 = call ptr @hash_search(ptr noundef %12, ptr noundef nonnull %15, i32 noundef 1, ptr noundef null) #8
  %17 = call ptr @hash_seq_search(ptr noundef nonnull %4) #8
  %.not32 = icmp eq ptr %17, null
  br i1 %.not32, label %.preheader, label %.lr.ph, !llvm.loop !11

.lr.ph39:                                         ; preds = %.preheader, %23
  %.038 = phi ptr [ %.0, %23 ], [ %.036, %.preheader ]
  %18 = getelementptr inbounds nuw i8, ptr %.038, i64 16
  %19 = load i8, ptr %18, align 8, !range !4, !noundef !5
  %20 = trunc nuw i8 %19 to i1
  br i1 %20, label %21, label %23

21:                                               ; preds = %.lr.ph39
  %22 = call ptr @hash_search(ptr noundef %12, ptr noundef nonnull %.038, i32 noundef 2, ptr noundef null) #8
  br label %23

23:                                               ; preds = %.lr.ph39, %21
  %24 = getelementptr inbounds nuw i8, ptr %.038, i64 24
  %.0 = load ptr, ptr %24, align 8
  %.not33 = icmp eq ptr %.0, null
  br i1 %.not33, label %._crit_edge, label %.lr.ph39, !llvm.loop !12

._crit_edge:                                      ; preds = %23, %.preheader
  call void @hash_seq_init(ptr noundef nonnull %4, ptr noundef %12) #8
  %25 = call ptr @hash_seq_search(ptr noundef nonnull %4) #8
  %.not3440 = icmp eq ptr %25, null
  br i1 %.not3440, label %._crit_edge44, label %.lr.ph43

.lr.ph43:                                         ; preds = %._crit_edge, %.lr.ph43
  %26 = phi ptr [ %28, %.lr.ph43 ], [ %25, %._crit_edge ]
  %.02941 = phi ptr [ %27, %.lr.ph43 ], [ %1, %._crit_edge ]
  %27 = getelementptr inbounds nuw i8, ptr %.02941, i64 12
  call void @llvm.memcpy.p0.p0.i64(ptr noundef nonnull align 4 dereferenceable(12) %.02941, ptr noundef nonnull align 4 dereferenceable(12) %26, i64 12, i1 false)
  %28 = call ptr @hash_seq_search(ptr noundef nonnull %4) #8
  %.not34 = icmp eq ptr %28, null
  br i1 %.not34, label %._crit_edge44, label %.lr.ph43, !llvm.loop !13

._crit_edge44:                                    ; preds = %.lr.ph43, %._crit_edge
  %.029.lcssa = phi ptr [ %1, %._crit_edge ], [ %27, %.lr.ph43 ]
  call void @hash_destroy(ptr noundef %12) #8
  br label %29

29:                                               ; preds = %._crit_edge44, %2
  %.1 = phi ptr [ %.029.lcssa, %._crit_edge44 ], [ %1, %2 ]
  call void @llvm.memset.p0.i64(ptr noundef nonnull align 1 dereferenceable(12) %.1, i8 0, i64 12, i1 false)
  call void @llvm.lifetime.end.p0(i64 32, ptr nonnull %4) #8
  call void @llvm.lifetime.end.p0(i64 96, ptr nonnull %3) #8
  ret void
}